; Function Attrs: mustprogress uwtable
define void @_ZNK4cvc56parser25GetUnsatCoreLemmasCommand11printResultEPNS_6SolverERSo(ptr noundef nonnull align 8 dereferenceable(48) %0, ptr readnone captures(none) %1, ptr noundef nonnull align 8 dereferenceable(8) %2) unnamed_addr #3 align 2 personality ptr @__gxx_personality_v0 {
  %4 = alloca %"class.cvc5::internal::UnsatCore", align 8
  %5 = alloca %"class.std::vector", align 8
  call void @llvm.lifetime.start.p0(i64 56, ptr nonnull %4) #33
  call void @llvm.lifetime.start.p0(i64 24, ptr nonnull %5) #33
  %6 = getelementptr inbounds nuw i8, ptr %0, i64 24
  call void @_ZN4cvc54Term17termVectorToNodesERKSt6vectorIS0_SaIS0_EE(ptr dead_on_unwind nonnull writable sret(%"class.std::vector") align 8 %5, ptr noundef nonnull align 8 dereferenceable(24) %6)
  invoke void @_ZN4cvc58internal9UnsatCoreC1ERKSt6vectorINS0_12NodeTemplateILb1EEESaIS4_EE(ptr noundef nonnull align 8 dereferenceable(56) %4, ptr noundef nonnull align 8 dereferenceable(24) %5)
          to label %7 unwind label %33

7:                                                ; preds = %3
  %8 = load ptr, ptr %5, align 8, !tbaa !118
  %9 = getelementptr inbounds nuw i8, ptr %5, i64 8
  %10 = load ptr, ptr %9, align 8, !tbaa !120
  %.not4.i.i.i.i = icmp eq ptr %8, %10
  br i1 %.not4.i.i.i.i, label %_ZSt8_DestroyIPN4cvc58internal12NodeTemplateILb1EEES3_EvT_S5_RSaIT0_E.exit.i, label %.lr.ph.i.i.i.i

.lr.ph.i.i.i.i:                                   ; preds = %7, %_ZSt8_DestroyIN4cvc58internal12NodeTemplateILb1EEEEvPT_.exit.i.i.i.i
  %.05.i.i.i.i = phi ptr [ %24, %_ZSt8_DestroyIN4cvc58internal12NodeTemplateILb1EEEEvPT_.exit.i.i.i.i ], [ %8, %7 ]
  %11 = load ptr, ptr %.05.i.i.i.i, align 8, !tbaa !64
  %12 = load i64, ptr %11, align 8
  %13 = and i64 %12, 1152920405095219200
  %.not.i.i.i.i.i.i.i = icmp eq i64 %13, 1152920405095219200
  br i1 %.not.i.i.i.i.i.i.i, label %_ZSt8_DestroyIN4cvc58internal12NodeTemplateILb1EEEEvPT_.exit.i.i.i.i, label %14, !prof !32

14:                                               ; preds = %.lr.ph.i.i.i.i
  %15 = add i64 %12, 1152920405095219200
  %16 = and i64 %15, 1152920405095219200
  %17 = and i64 %12, -1152920405095219201
  %18 = or disjoint i64 %16, %17
  store i64 %18, ptr %11, align 8
  %19 = icmp eq i64 %16, 0
  br i1 %19, label %20, label %_ZSt8_DestroyIN4cvc58internal12NodeTemplateILb1EEEEvPT_.exit.i.i.i.i, !prof !32

20:                                               ; preds = %14
  invoke void @_ZN4cvc58internal4expr9NodeValue15markForDeletionEv(ptr noundef nonnull align 8 dereferenceable(24) %11)
          to label %_ZSt8_DestroyIN4cvc58internal12NodeTemplateILb1EEEEvPT_.exit.i.i.i.i unwind label %21

21:                                               ; preds = %20
  %22 = landingpad { ptr, i32 }
          catch ptr null
  %23 = extractvalue { ptr, i32 } %22, 0
  call void @__clang_call_terminate(ptr %23) #35
  unreachable

_ZSt8_DestroyIN4cvc58internal12NodeTemplateILb1EEEEvPT_.exit.i.i.i.i: ; preds = %20, %14, %.lr.ph.i.i.i.i
  %24 = getelementptr inbounds nuw i8, ptr %.05.i.i.i.i, i64 8
  %.not.i.i.i.i = icmp eq ptr %24, %10
  br i1 %.not.i.i.i.i, label %_ZSt8_DestroyIPN4cvc58internal12NodeTemplateILb1EEES3_EvT_S5_RSaIT0_E.exitthread-pre-split.i, label %.lr.ph.i.i.i.i, !llvm.loop !121

_ZSt8_DestroyIPN4cvc58internal12NodeTemplateILb1EEES3_EvT_S5_RSaIT0_E.exitthread-pre-split.i: ; preds = %_ZSt8_DestroyIN4cvc58internal12NodeTemplateILb1EEEEvPT_.exit.i.i.i.i
  %.pr.i = load ptr, ptr %5, align 8, !tbaa !118
  br label %_ZSt8_DestroyIPN4cvc58internal12NodeTemplateILb1EEES3_EvT_S5_RSaIT0_E.exit.i

_ZSt8_DestroyIPN4cvc58internal12NodeTemplateILb1EEES3_EvT_S5_RSaIT0_E.exit.i: ; preds = %_ZSt8_DestroyIPN4cvc58internal12NodeTemplateILb1EEES3_EvT_S5_RSaIT0_E.exitthread-pre-split.i, %7
  %25 = phi ptr [ %.pr.i, %_ZSt8_DestroyIPN4cvc58internal12NodeTemplateILb1EEES3_EvT_S5_RSaIT0_E.exitthread-pre-split.i ], [ %8, %7 ]
  %.not.i.i.i = icmp eq ptr %25, null
  br i1 %.not.i.i.i, label %_ZNSt6vectorIN4cvc58internal12NodeTemplateILb1EEESaIS3_EED2Ev.exit, label %26

26:                                               ; preds = %_ZSt8_DestroyIPN4cvc58internal12NodeTemplateILb1EEES3_EvT_S5_RSaIT0_E.exit.i
  %27 = getelementptr inbounds nuw i8, ptr %5, i64 16
  %28 = load ptr, ptr %27, align 8, !tbaa !122
  %29 = ptrtoint ptr %28 to i64
  %30 = ptrtoint ptr %25 to i64
  %31 = sub i64 %29, %30
  call void @_ZdlPvm(ptr noundef nonnull %25, i64 noundef %31) #34
  br label %_ZNSt6vectorIN4cvc58internal12NodeTemplateILb1EEESaIS3_EED2Ev.exit

_ZNSt6vectorIN4cvc58internal12NodeTemplateILb1EEESaIS3_EED2Ev.exit: ; preds = %_ZSt8_DestroyIPN4cvc58internal12NodeTemplateILb1EEES3_EvT_S5_RSaIT0_E.exit.i, %26
  call void @llvm.lifetime.end.p0(i64 24, ptr nonnull %5) #33
  invoke void @_ZNK4cvc58internal9UnsatCore8toStreamERSo(ptr noundef nonnull align 8 dereferenceable(56) %4, ptr noundef nonnull align 8 dereferenceable(8) %2)
          to label %32 unwind label %35

32:                                               ; preds = %_ZNSt6vectorIN4cvc58internal12NodeTemplateILb1EEESaIS3_EED2Ev.exit
  call void @_ZN4cvc58internal9UnsatCoreD2Ev(ptr noundef nonnull align 8 dereferenceable(56) %4) #33
  call void @llvm.lifetime.end.p0(i64 56, ptr nonnull %4) #33
  ret void

33:                                               ; preds = %3
  %34 = landingpad { ptr, i32 }
          cleanup
  call void @_ZNSt6vectorIN4cvc58internal12NodeTemplateILb1EEESaIS3_EED2Ev(ptr noundef nonnull align 8 dereferenceable(24) %5) #33
  call void @llvm.lifetime.end.p0(i64 24, ptr nonnull %5) #33
  br label %37

35:                                               ; preds = %_ZNSt6vectorIN4cvc58internal12NodeTemplateILb1EEESaIS3_EED2Ev.exit
  %36 = landingpad { ptr, i32 }
          cleanup
  call void @_ZN4cvc58internal9UnsatCoreD2Ev(ptr noundef nonnull align 8 dereferenceable(56) %4) #33
  br label %37

37:                                               ; preds = %35, %33
  %.pn = phi { ptr, i32 } [ %36, %35 ], [ %34, %33 ]
  call void @llvm.lifetime.end.p0(i64 56, ptr nonnull %4) #33
  resume { ptr, i32 } %.pn
}